target datalayout = "e-m:e-p270:32:32-p271:32:32-p272:64:64-i64:64-i128:128-f80:128-n8:16:32:64-S128"
target triple = "x86_64-pc-linux-gnu"

%struct.optstruct = type { ptr, ptr, ptr, i64, i32, i32, i32, i32, ptr, ptr, ptr }
%struct.cl_cvd = type { ptr, i32, i32, i32, ptr, ptr, ptr, i32 }

@.str.26 = private unnamed_addr constant [5 x i8] c"info\00", align 1
@.str.175 = private unnamed_addr constant [5 x i8] c".cvd\00", align 1
@.str.177 = private unnamed_addr constant [5 x i8] c".cud\00", align 1
@.str.289 = private unnamed_addr constant [44 x i8] c"cvdinfo: Can't read/parse CVD header of %s\0A\00", align 1
@.str.290 = private unnamed_addr constant [10 x i8] c"File: %s\0A\00", align 1
@.str.291 = private unnamed_addr constant [16 x i8] c"Build time: %s\0A\00", align 1
@.str.292 = private unnamed_addr constant [13 x i8] c"Version: %u\0A\00", align 1
@.str.293 = private unnamed_addr constant [16 x i8] c"Signatures: %u\0A\00", align 1
@.str.294 = private unnamed_addr constant [25 x i8] c"Functionality level: %u\0A\00", align 1
@.str.295 = private unnamed_addr constant [13 x i8] c"Builder: %s\0A\00", align 1
@.str.296 = private unnamed_addr constant [9 x i8] c"MD5: %s\0A\00", align 1
@.str.297 = private unnamed_addr constant [23 x i8] c"Digital signature: %s\0A\00", align 1
@.str.298 = private unnamed_addr constant [34 x i8] c"Verification: Unsigned container\0A\00", align 1
@.str.299 = private unnamed_addr constant [27 x i8] c"cvdinfo: Verification: %s\0A\00", align 1
@.str.300 = private unnamed_addr constant [18 x i8] c"Verification OK.\0A\00", align 1

; Function Attrs: nounwind uwtable
define internal i32 @cvdinfo(ptr noundef %0) #0 {
  %2 = alloca i32, align 4
  %3 = alloca ptr, align 8
  %4 = alloca ptr, align 8
  %5 = alloca ptr, align 8
  %6 = alloca i32, align 4
  store ptr %0, ptr %3, align 8
  %7 = load ptr, ptr %3, align 8
  %8 = call ptr @optget(ptr noundef %7, ptr noundef @.str.26)
  %9 = getelementptr inbounds %struct.optstruct, ptr %8, i32 0, i32 2
  %10 = load ptr, ptr %9, align 8
  store ptr %10, ptr %5, align 8
  %11 = load ptr, ptr %5, align 8
  %12 = call ptr @cl_cvdhead(ptr noundef %11)
  store ptr %12, ptr %4, align 8
  %13 = icmp eq ptr %12, null
  br i1 %13, label %14, label %16

14:                                               ; preds = %1
  %15 = load ptr, ptr %5, align 8
  call void (i32, ptr, ...) @mprintf(i32 noundef 5, ptr noundef @.str.289, ptr noundef %15)
  store i32 -1, ptr %2, align 4
  br label %73

16:                                               ; preds = %1
  %17 = load ptr, ptr %5, align 8
  call void (i32, ptr, ...) @mprintf(i32 noundef 0, ptr noundef @.str.290, ptr noundef %17)
  %18 = load ptr, ptr %4, align 8
  %19 = getelementptr inbounds %struct.cl_cvd, ptr %18, i32 0, i32 0
  %20 = load ptr, ptr %19, align 8
  %21 = call ptr @strchr(ptr noundef %20, i32 noundef 45) #14
  store ptr %21, ptr %5, align 8
  %22 = load ptr, ptr %5, align 8
  %23 = icmp ne ptr %22, null
  br i1 %23, label %26, label %24

24:                                               ; preds = %16
  %25 = load ptr, ptr %4, align 8
  call void @cl_cvdfree(ptr noundef %25)
  store i32 -1, ptr %2, align 4
  br label %73

26:                                               ; preds = %16
  %27 = load ptr, ptr %5, align 8
  store i8 58, ptr %27, align 1
  %28 = load ptr, ptr %4, align 8
  %29 = getelementptr inbounds %struct.cl_cvd, ptr %28, i32 0, i32 0
  %30 = load ptr, ptr %29, align 8
  call void (i32, ptr, ...) @mprintf(i32 noundef 0, ptr noundef @.str.291, ptr noundef %30)
  %31 = load ptr, ptr %4, align 8
  %32 = getelementptr inbounds %struct.cl_cvd, ptr %31, i32 0, i32 1
  %33 = load i32, ptr %32, align 8
  call void (i32, ptr, ...) @mprintf(i32 noundef 0, ptr noundef @.str.292, i32 noundef %33)
  %34 = load ptr, ptr %4, align 8
  %35 = getelementptr inbounds %struct.cl_cvd, ptr %34, i32 0, i32 2
  %36 = load i32, ptr %35, align 4
  call void (i32, ptr, ...) @mprintf(i32 noundef 0, ptr noundef @.str.293, i32 noundef %36)
  %37 = load ptr, ptr %4, align 8
  %38 = getelementptr inbounds %struct.cl_cvd, ptr %37, i32 0, i32 3
  %39 = load i32, ptr %38, align 8
  call void (i32, ptr, ...) @mprintf(i32 noundef 0, ptr noundef @.str.294, i32 noundef %39)
  %40 = load ptr, ptr %4, align 8
  %41 = getelementptr inbounds %struct.cl_cvd, ptr %40, i32 0, i32 6
  %42 = load ptr, ptr %41, align 8
  call void (i32, ptr, ...) @mprintf(i32 noundef 0, ptr noundef @.str.295, ptr noundef %42)
  %43 = load ptr, ptr %3, align 8
  %44 = call ptr @optget(ptr noundef %43, ptr noundef @.str.26)
  %45 = getelementptr inbounds %struct.optstruct, ptr %44, i32 0, i32 2
  %46 = load ptr, ptr %45, align 8
  store ptr %46, ptr %5, align 8
  %47 = load ptr, ptr %5, align 8
  %48 = call i32 @cli_strbcasestr(ptr noundef %47, ptr noundef @.str.175)
  %49 = icmp ne i32 %48, 0
  br i1 %49, label %50, label %57

50:                                               ; preds = %26
  %51 = load ptr, ptr %4, align 8
  %52 = getelementptr inbounds %struct.cl_cvd, ptr %51, i32 0, i32 4
  %53 = load ptr, ptr %52, align 8
  call void (i32, ptr, ...) @mprintf(i32 noundef 0, ptr noundef @.str.296, ptr noundef %53)
  %54 = load ptr, ptr %4, align 8
  %55 = getelementptr inbounds %struct.cl_cvd, ptr %54, i32 0, i32 5
  %56 = load ptr, ptr %55, align 8
  call void (i32, ptr, ...) @mprintf(i32 noundef 0, ptr noundef @.str.297, ptr noundef %56)
  br label %57

57:                                               ; preds = %50, %26
  %58 = load ptr, ptr %4, align 8
  call void @cl_cvdfree(ptr noundef %58)
  %59 = load ptr, ptr %5, align 8
  %60 = call i32 @cli_strbcasestr(ptr noundef %59, ptr noundef @.str.177)
  %61 = icmp ne i32 %60, 0
  br i1 %61, label %62, label %63

62:                                               ; preds = %57
  call void (i32, ptr, ...) @mprintf(i32 noundef 0, ptr noundef @.str.298)
  br label %72

63:                                               ; preds = %57
  %64 = load ptr, ptr %5, align 8
  %65 = call i32 @cl_cvdverify(ptr noundef %64)
  store i32 %65, ptr %6, align 4
  %66 = icmp ne i32 %65, 0
  br i1 %66, label %67, label %70

67:                                               ; preds = %63
  %68 = load i32, ptr %6, align 4
  %69 = call ptr @cl_strerror(i32 noundef %68)
  call void (i32, ptr, ...) @mprintf(i32 noundef 5, ptr noundef @.str.299, ptr noundef %69)
  store i32 -1, ptr %2, align 4
  br label %73

70:                                               ; preds = %63
  call void (i32, ptr, ...) @mprintf(i32 noundef 0, ptr noundef @.str.300)
  br label %71

71:                                               ; preds = %70
  br label %72

72:                                               ; preds = %71, %62
  store i32 0, ptr %2, align 4
  br label %73

73:                                               ; preds = %72, %67, %24, %14
  %74 = load i32, ptr %2, align 4
  ret i32 %74
}