; Function Attrs: nounwind uwtable
define internal fastcc noundef i32 @cvdinfo(ptr noundef %0) unnamed_addr #0 {
  %2 = tail call ptr @optget(ptr noundef %0, ptr noundef nonnull @.str.26) #25
  %3 = getelementptr inbounds i8, ptr %2, i64 16
  %4 = load ptr, ptr %3, align 8
  %5 = tail call ptr @cl_cvdhead(ptr noundef %4) #25
  %6 = icmp eq ptr %5, null
  br i1 %6, label %7, label %8

7:                                                ; preds = %1
  tail call void (i32, ptr, ...) @mprintf(i32 noundef 5, ptr noundef nonnull @.str.289, ptr noundef %4) #25
  br label %39

8:                                                ; preds = %1
  tail call void (i32, ptr, ...) @mprintf(i32 noundef 0, ptr noundef nonnull @.str.290, ptr noundef %4) #25
  %9 = load ptr, ptr %5, align 8
  %10 = tail call ptr @strchr(ptr noundef nonnull dereferenceable(1) %9, i32 noundef 45) #31
  %.not = icmp eq ptr %10, null
  br i1 %.not, label %11, label %12

11:                                               ; preds = %8
  tail call void @cl_cvdfree(ptr noundef nonnull %5) #25
  br label %39

12:                                               ; preds = %8
  store i8 58, ptr %10, align 1
  %13 = load ptr, ptr %5, align 8
  tail call void (i32, ptr, ...) @mprintf(i32 noundef 0, ptr noundef nonnull @.str.291, ptr noundef %13) #25
  %14 = getelementptr inbounds i8, ptr %5, i64 8
  %15 = load i32, ptr %14, align 8
  tail call void (i32, ptr, ...) @mprintf(i32 noundef 0, ptr noundef nonnull @.str.292, i32 noundef %15) #25
  %16 = getelementptr inbounds i8, ptr %5, i64 12
  %17 = load i32, ptr %16, align 4
  tail call void (i32, ptr, ...) @mprintf(i32 noundef 0, ptr noundef nonnull @.str.293, i32 noundef %17) #25
  %18 = getelementptr inbounds i8, ptr %5, i64 16
  %19 = load i32, ptr %18, align 8
  tail call void (i32, ptr, ...) @mprintf(i32 noundef 0, ptr noundef nonnull @.str.294, i32 noundef %19) #25
  %20 = getelementptr inbounds i8, ptr %5, i64 40
  %21 = load ptr, ptr %20, align 8
  tail call void (i32, ptr, ...) @mprintf(i32 noundef 0, ptr noundef nonnull @.str.295, ptr noundef %21) #25
  %22 = tail call ptr @optget(ptr noundef %0, ptr noundef nonnull @.str.26) #25
  %23 = getelementptr inbounds i8, ptr %22, i64 16
  %24 = load ptr, ptr %23, align 8
  %25 = tail call i32 @cli_strbcasestr(ptr noundef %24, ptr noundef nonnull @.str.175) #25
  %.not24 = icmp eq i32 %25, 0
  br i1 %.not24, label %31, label %26

26:                                               ; preds = %12
  %27 = getelementptr inbounds i8, ptr %5, i64 24
  %28 = load ptr, ptr %27, align 8
  tail call void (i32, ptr, ...) @mprintf(i32 noundef 0, ptr noundef nonnull @.str.296, ptr noundef %28) #25
  %29 = getelementptr inbounds i8, ptr %5, i64 32
  %30 = load ptr, ptr %29, align 8
  tail call void (i32, ptr, ...) @mprintf(i32 noundef 0, ptr noundef nonnull @.str.297, ptr noundef %30) #25
  br label %31

31:                                               ; preds = %26, %12
  tail call void @cl_cvdfree(ptr noundef nonnull %5) #25
  %32 = tail call i32 @cli_strbcasestr(ptr noundef %24, ptr noundef nonnull @.str.177) #25
  %.not25 = icmp eq i32 %32, 0
  br i1 %.not25, label %34, label %33

33:                                               ; preds = %31
  tail call void (i32, ptr, ...) @mprintf(i32 noundef 0, ptr noundef nonnull @.str.298) #25
  br label %39

34:                                               ; preds = %31
  %35 = tail call i32 @cl_cvdverify(ptr noundef %24) #25
  %.not26 = icmp eq i32 %35, 0
  br i1 %.not26, label %38, label %36

36:                                               ; preds = %34
  %37 = tail call ptr @cl_strerror(i32 noundef %35) #25
  tail call void (i32, ptr, ...) @mprintf(i32 noundef 5, ptr noundef nonnull @.str.299, ptr noundef %37) #25
  br label %39

38:                                               ; preds = %34
  tail call void (i32, ptr, ...) @mprintf(i32 noundef 0, ptr noundef nonnull @.str.300) #25
  br label %39

39:                                               ; preds = %33, %38, %36, %11, %7
  %.0 = phi i32 [ -1, %7 ], [ -1, %36 ], [ -1, %11 ], [ 0, %38 ], [ 0, %33 ]
  ret i32 %.0
}